Turbo Assembler	 Version 4.1	    02/26/23 19:51:07	    Page 1
border2.asm



      1	0000			     .model tiny
      2	0000			     .code
      3
      4				     locals @@
      5
      6				     org 100h
      7
      8	0100  BE 0080		     Start:  mov si, 80h
      9
     10	0103  AC			     lodsb
     11
     12	0104  32 FF			     xor bh, bh
     13	0106  8A D8			     mov bl, al			     ; bl is length of our string
     14
     15	0108  46			     inc si
     16	0109  AC			     lodsb
     17
     18	010A  2C 30			     sub al, '0'
     19	010C  3C 00			     cmp al, 0
     20
     21	010E  75 18			     jne ncbrd
     22
     23	0110  80 EB 09			     sub bl, 9			     ; length minus char of our	custom border
     24
     25	0113  BF 04D7r			     mov di, offset cbrd
     26
     27					     REPT 9
     28
     29					     lodsb
     30					     stosb
     31
     32					     ENDM
1    33
1    34	0116  AC			     lodsb
1    35	0117  AA			     stosb
1    36
1    37
1    38	0118  AC			     lodsb
1    39	0119  AA			     stosb
1    40
1    41
1    42	011A  AC			     lodsb
1    43	011B  AA			     stosb
1    44
1    45
1    46	011C  AC			     lodsb
1    47	011D  AA			     stosb
1    48
1    49
1    50	011E  AC			     lodsb
1    51	011F  AA			     stosb
1    52
1    53
1    54	0120  AC			     lodsb
1    55	0121  AA			     stosb
1    56
1    57
Turbo Assembler	 Version 4.1	    02/26/23 19:51:07	    Page 2
border2.asm



1    58	0122  AC			     lodsb
1    59	0123  AA			     stosb
1    60
1    61
1    62	0124  AC			     lodsb
1    63	0125  AA			     stosb
1    64
1    65
1    66	0126  AC			     lodsb
1    67	0127  AA			     stosb
1    68
     69
     70	0128  80 EB 01		     ncbrd:  sub bl, 1
     71
     72	012B  33 D2			     xor dx, dx			     ; wanna set height	and length
     73
     74	012D  8B C3			     mov ax, bx
     75	012F  B2 0A			     mov dl, 10			     ; 10 chars	in one line
     76
     77	0131  F6 F2			     div dl			     ; wanna know how many lines will be
     78	0133  B2 1E			     mov dl, 30
     79
     80	0135  8A F0			     mov dh, al
     81	0137  02 D2			     add dl, dl			     ; convert to vm px	(2 bytes)
     82
     83	0139  80 C6 05			     add dh, 5
     84
     85	013C  BF B800			     mov di, 0B800h
     86	013F  8E C7			     mov es, di
     87
     88	0141  BF 07D0			     mov di, 80	* 25
     89
     90	0144  33 C9			     xor cx, cx
     91	0146  8A CA			     mov cl, dl
     92
     93	0148  2B F9			     sub di, cx			     ; x of lt
     94
     95	014A  8A CE			     mov cl, dh
     96
     97					     REPT 160
     98
     99					     sub di, cx			     ; y of lt
    100
    101					     ENDM			     ; di to start
1   102
1   103	014C  2B F9			     sub di, cx			     ; y of lt
1   104
1   105
1   106	014E  2B F9			     sub di, cx			     ; y of lt
1   107
1   108
1   109	0150  2B F9			     sub di, cx			     ; y of lt
1   110
1   111
1   112	0152  2B F9			     sub di, cx			     ; y of lt
1   113
1   114
Turbo Assembler	 Version 4.1	    02/26/23 19:51:07	    Page 3
border2.asm



1   115	0154  2B F9			     sub di, cx			     ; y of lt
1   116
1   117
1   118	0156  2B F9			     sub di, cx			     ; y of lt
1   119
1   120
1   121	0158  2B F9			     sub di, cx			     ; y of lt
1   122
1   123
1   124	015A  2B F9			     sub di, cx			     ; y of lt
1   125
1   126
1   127	015C  2B F9			     sub di, cx			     ; y of lt
1   128
1   129
1   130	015E  2B F9			     sub di, cx			     ; y of lt
1   131
1   132
1   133	0160  2B F9			     sub di, cx			     ; y of lt
1   134
1   135
1   136	0162  2B F9			     sub di, cx			     ; y of lt
1   137
1   138
1   139	0164  2B F9			     sub di, cx			     ; y of lt
1   140
1   141
1   142	0166  2B F9			     sub di, cx			     ; y of lt
1   143
1   144
1   145	0168  2B F9			     sub di, cx			     ; y of lt
1   146
1   147
1   148	016A  2B F9			     sub di, cx			     ; y of lt
1   149
1   150
1   151	016C  2B F9			     sub di, cx			     ; y of lt
1   152
1   153
1   154	016E  2B F9			     sub di, cx			     ; y of lt
1   155
1   156
1   157	0170  2B F9			     sub di, cx			     ; y of lt
1   158
1   159
1   160	0172  2B F9			     sub di, cx			     ; y of lt
1   161
1   162
1   163	0174  2B F9			     sub di, cx			     ; y of lt
1   164
1   165
1   166	0176  2B F9			     sub di, cx			     ; y of lt
1   167
1   168
1   169	0178  2B F9			     sub di, cx			     ; y of lt
1   170
1   171
Turbo Assembler	 Version 4.1	    02/26/23 19:51:07	    Page 4
border2.asm



1   172	017A  2B F9			     sub di, cx			     ; y of lt
1   173
1   174
1   175	017C  2B F9			     sub di, cx			     ; y of lt
1   176
1   177
1   178	017E  2B F9			     sub di, cx			     ; y of lt
1   179
1   180
1   181	0180  2B F9			     sub di, cx			     ; y of lt
1   182
1   183
1   184	0182  2B F9			     sub di, cx			     ; y of lt
1   185
1   186
1   187	0184  2B F9			     sub di, cx			     ; y of lt
1   188
1   189
1   190	0186  2B F9			     sub di, cx			     ; y of lt
1   191
1   192
1   193	0188  2B F9			     sub di, cx			     ; y of lt
1   194
1   195
1   196	018A  2B F9			     sub di, cx			     ; y of lt
1   197
1   198
1   199	018C  2B F9			     sub di, cx			     ; y of lt
1   200
1   201
1   202	018E  2B F9			     sub di, cx			     ; y of lt
1   203
1   204
1   205	0190  2B F9			     sub di, cx			     ; y of lt
1   206
1   207
1   208	0192  2B F9			     sub di, cx			     ; y of lt
1   209
1   210
1   211	0194  2B F9			     sub di, cx			     ; y of lt
1   212
1   213
1   214	0196  2B F9			     sub di, cx			     ; y of lt
1   215
1   216
1   217	0198  2B F9			     sub di, cx			     ; y of lt
1   218
1   219
1   220	019A  2B F9			     sub di, cx			     ; y of lt
1   221
1   222
1   223	019C  2B F9			     sub di, cx			     ; y of lt
1   224
1   225
1   226	019E  2B F9			     sub di, cx			     ; y of lt
1   227
1   228
Turbo Assembler	 Version 4.1	    02/26/23 19:51:07	    Page 5
border2.asm



1   229	01A0  2B F9			     sub di, cx			     ; y of lt
1   230
1   231
1   232	01A2  2B F9			     sub di, cx			     ; y of lt
1   233
1   234
1   235	01A4  2B F9			     sub di, cx			     ; y of lt
1   236
1   237
1   238	01A6  2B F9			     sub di, cx			     ; y of lt
1   239
1   240
1   241	01A8  2B F9			     sub di, cx			     ; y of lt
1   242
1   243
1   244	01AA  2B F9			     sub di, cx			     ; y of lt
1   245
1   246
1   247	01AC  2B F9			     sub di, cx			     ; y of lt
1   248
1   249
1   250	01AE  2B F9			     sub di, cx			     ; y of lt
1   251
1   252
1   253	01B0  2B F9			     sub di, cx			     ; y of lt
1   254
1   255
1   256	01B2  2B F9			     sub di, cx			     ; y of lt
1   257
1   258
1   259	01B4  2B F9			     sub di, cx			     ; y of lt
1   260
1   261
1   262	01B6  2B F9			     sub di, cx			     ; y of lt
1   263
1   264
1   265	01B8  2B F9			     sub di, cx			     ; y of lt
1   266
1   267
1   268	01BA  2B F9			     sub di, cx			     ; y of lt
1   269
1   270
1   271	01BC  2B F9			     sub di, cx			     ; y of lt
1   272
1   273
1   274	01BE  2B F9			     sub di, cx			     ; y of lt
1   275
1   276
1   277	01C0  2B F9			     sub di, cx			     ; y of lt
1   278
1   279
1   280	01C2  2B F9			     sub di, cx			     ; y of lt
1   281
1   282
1   283	01C4  2B F9			     sub di, cx			     ; y of lt
1   284
1   285
Turbo Assembler	 Version 4.1	    02/26/23 19:51:07	    Page 6
border2.asm



1   286	01C6  2B F9			     sub di, cx			     ; y of lt
1   287
1   288
1   289	01C8  2B F9			     sub di, cx			     ; y of lt
1   290
1   291
1   292	01CA  2B F9			     sub di, cx			     ; y of lt
1   293
1   294
1   295	01CC  2B F9			     sub di, cx			     ; y of lt
1   296
1   297
1   298	01CE  2B F9			     sub di, cx			     ; y of lt
1   299
1   300
1   301	01D0  2B F9			     sub di, cx			     ; y of lt
1   302
1   303
1   304	01D2  2B F9			     sub di, cx			     ; y of lt
1   305
1   306
1   307	01D4  2B F9			     sub di, cx			     ; y of lt
1   308
1   309
1   310	01D6  2B F9			     sub di, cx			     ; y of lt
1   311
1   312
1   313	01D8  2B F9			     sub di, cx			     ; y of lt
1   314
1   315
1   316	01DA  2B F9			     sub di, cx			     ; y of lt
1   317
1   318
1   319	01DC  2B F9			     sub di, cx			     ; y of lt
1   320
1   321
1   322	01DE  2B F9			     sub di, cx			     ; y of lt
1   323
1   324
1   325	01E0  2B F9			     sub di, cx			     ; y of lt
1   326
1   327
1   328	01E2  2B F9			     sub di, cx			     ; y of lt
1   329
1   330
1   331	01E4  2B F9			     sub di, cx			     ; y of lt
1   332
1   333
1   334	01E6  2B F9			     sub di, cx			     ; y of lt
1   335
1   336
1   337	01E8  2B F9			     sub di, cx			     ; y of lt
1   338
1   339
1   340	01EA  2B F9			     sub di, cx			     ; y of lt
1   341
1   342
Turbo Assembler	 Version 4.1	    02/26/23 19:51:07	    Page 7
border2.asm



1   343	01EC  2B F9			     sub di, cx			     ; y of lt
1   344
1   345
1   346	01EE  2B F9			     sub di, cx			     ; y of lt
1   347
1   348
1   349	01F0  2B F9			     sub di, cx			     ; y of lt
1   350
1   351
1   352	01F2  2B F9			     sub di, cx			     ; y of lt
1   353
1   354
1   355	01F4  2B F9			     sub di, cx			     ; y of lt
1   356
1   357
1   358	01F6  2B F9			     sub di, cx			     ; y of lt
1   359
1   360
1   361	01F8  2B F9			     sub di, cx			     ; y of lt
1   362
1   363
1   364	01FA  2B F9			     sub di, cx			     ; y of lt
1   365
1   366
1   367	01FC  2B F9			     sub di, cx			     ; y of lt
1   368
1   369
1   370	01FE  2B F9			     sub di, cx			     ; y of lt
1   371
1   372
1   373	0200  2B F9			     sub di, cx			     ; y of lt
1   374
1   375
1   376	0202  2B F9			     sub di, cx			     ; y of lt
1   377
1   378
1   379	0204  2B F9			     sub di, cx			     ; y of lt
1   380
1   381
1   382	0206  2B F9			     sub di, cx			     ; y of lt
1   383
1   384
1   385	0208  2B F9			     sub di, cx			     ; y of lt
1   386
1   387
1   388	020A  2B F9			     sub di, cx			     ; y of lt
1   389
1   390
1   391	020C  2B F9			     sub di, cx			     ; y of lt
1   392
1   393
1   394	020E  2B F9			     sub di, cx			     ; y of lt
1   395
1   396
1   397	0210  2B F9			     sub di, cx			     ; y of lt
1   398
1   399
Turbo Assembler	 Version 4.1	    02/26/23 19:51:07	    Page 8
border2.asm



1   400	0212  2B F9			     sub di, cx			     ; y of lt
1   401
1   402
1   403	0214  2B F9			     sub di, cx			     ; y of lt
1   404
1   405
1   406	0216  2B F9			     sub di, cx			     ; y of lt
1   407
1   408
1   409	0218  2B F9			     sub di, cx			     ; y of lt
1   410
1   411
1   412	021A  2B F9			     sub di, cx			     ; y of lt
1   413
1   414
1   415	021C  2B F9			     sub di, cx			     ; y of lt
1   416
1   417
1   418	021E  2B F9			     sub di, cx			     ; y of lt
1   419
1   420
1   421	0220  2B F9			     sub di, cx			     ; y of lt
1   422
1   423
1   424	0222  2B F9			     sub di, cx			     ; y of lt
1   425
1   426
1   427	0224  2B F9			     sub di, cx			     ; y of lt
1   428
1   429
1   430	0226  2B F9			     sub di, cx			     ; y of lt
1   431
1   432
1   433	0228  2B F9			     sub di, cx			     ; y of lt
1   434
1   435
1   436	022A  2B F9			     sub di, cx			     ; y of lt
1   437
1   438
1   439	022C  2B F9			     sub di, cx			     ; y of lt
1   440
1   441
1   442	022E  2B F9			     sub di, cx			     ; y of lt
1   443
1   444
1   445	0230  2B F9			     sub di, cx			     ; y of lt
1   446
1   447
1   448	0232  2B F9			     sub di, cx			     ; y of lt
1   449
1   450
1   451	0234  2B F9			     sub di, cx			     ; y of lt
1   452
1   453
1   454	0236  2B F9			     sub di, cx			     ; y of lt
1   455
1   456
Turbo Assembler	 Version 4.1	    02/26/23 19:51:07	    Page 9
border2.asm



1   457	0238  2B F9			     sub di, cx			     ; y of lt
1   458
1   459
1   460	023A  2B F9			     sub di, cx			     ; y of lt
1   461
1   462
1   463	023C  2B F9			     sub di, cx			     ; y of lt
1   464
1   465
1   466	023E  2B F9			     sub di, cx			     ; y of lt
1   467
1   468
1   469	0240  2B F9			     sub di, cx			     ; y of lt
1   470
1   471
1   472	0242  2B F9			     sub di, cx			     ; y of lt
1   473
1   474
1   475	0244  2B F9			     sub di, cx			     ; y of lt
1   476
1   477
1   478	0246  2B F9			     sub di, cx			     ; y of lt
1   479
1   480
1   481	0248  2B F9			     sub di, cx			     ; y of lt
1   482
1   483
1   484	024A  2B F9			     sub di, cx			     ; y of lt
1   485
1   486
1   487	024C  2B F9			     sub di, cx			     ; y of lt
1   488
1   489
1   490	024E  2B F9			     sub di, cx			     ; y of lt
1   491
1   492
1   493	0250  2B F9			     sub di, cx			     ; y of lt
1   494
1   495
1   496	0252  2B F9			     sub di, cx			     ; y of lt
1   497
1   498
1   499	0254  2B F9			     sub di, cx			     ; y of lt
1   500
1   501
1   502	0256  2B F9			     sub di, cx			     ; y of lt
1   503
1   504
1   505	0258  2B F9			     sub di, cx			     ; y of lt
1   506
1   507
1   508	025A  2B F9			     sub di, cx			     ; y of lt
1   509
1   510
1   511	025C  2B F9			     sub di, cx			     ; y of lt
1   512
1   513
Turbo Assembler	 Version 4.1	    02/26/23 19:51:07	    Page 10
border2.asm



1   514	025E  2B F9			     sub di, cx			     ; y of lt
1   515
1   516
1   517	0260  2B F9			     sub di, cx			     ; y of lt
1   518
1   519
1   520	0262  2B F9			     sub di, cx			     ; y of lt
1   521
1   522
1   523	0264  2B F9			     sub di, cx			     ; y of lt
1   524
1   525
1   526	0266  2B F9			     sub di, cx			     ; y of lt
1   527
1   528
1   529	0268  2B F9			     sub di, cx			     ; y of lt
1   530
1   531
1   532	026A  2B F9			     sub di, cx			     ; y of lt
1   533
1   534
1   535	026C  2B F9			     sub di, cx			     ; y of lt
1   536
1   537
1   538	026E  2B F9			     sub di, cx			     ; y of lt
1   539
1   540
1   541	0270  2B F9			     sub di, cx			     ; y of lt
1   542
1   543
1   544	0272  2B F9			     sub di, cx			     ; y of lt
1   545
1   546
1   547	0274  2B F9			     sub di, cx			     ; y of lt
1   548
1   549
1   550	0276  2B F9			     sub di, cx			     ; y of lt
1   551
1   552
1   553	0278  2B F9			     sub di, cx			     ; y of lt
1   554
1   555
1   556	027A  2B F9			     sub di, cx			     ; y of lt
1   557
1   558
1   559	027C  2B F9			     sub di, cx			     ; y of lt
1   560
1   561
1   562	027E  2B F9			     sub di, cx			     ; y of lt
1   563
1   564
1   565	0280  2B F9			     sub di, cx			     ; y of lt
1   566
1   567
1   568	0282  2B F9			     sub di, cx			     ; y of lt
1   569
1   570
Turbo Assembler	 Version 4.1	    02/26/23 19:51:07	    Page 11
border2.asm



1   571	0284  2B F9			     sub di, cx			     ; y of lt
1   572
1   573
1   574	0286  2B F9			     sub di, cx			     ; y of lt
1   575
1   576
1   577	0288  2B F9			     sub di, cx			     ; y of lt
1   578
1   579
1   580	028A  2B F9			     sub di, cx			     ; y of lt
1   581
    582
    583	028C  80 C6 05			     add dh, 5
    584
    585	028F  B4 1E			     mov ah, 01Eh		     ; 24 Feb......
    586
    587	0291  BE 0082			     mov si, 82h
    588
    589	0294  8A 0C			     mov cl, byte ptr [si]
    590	0296  80 E9 30			     sub cl, '0'
    591	0299  32 ED			     xor ch, ch			     ; cl is type
    592
    593	029B  BE 04D7r			     mov si, offset cbrd
    594
    595	029E  80 F9 00			     cmp cl, 0
    596	02A1  74 05			     je	custom
    597
    598	02A3  83 C6 09		     @@next: add si, 9
    599	02A6  E2 FB			     loop @@next
    600
    601	02A8			     custom:
    602
    603	02A8  E8 002C			     call Border
    604
    605	02AB  BB 0080			     mov bx, word ptr 80h
    606	02AE  8A 1F			     mov bl, [bx]
    607	02B0  32 FF			     xor bh, bh
    608
    609	02B2  BE 0082			     mov si, 82h
    610
    611	02B5  80 3C 00			     cmp byte ptr [si],	byte ptr 0
    612	02B8  75 06			     jne not_custom
    613
    614	02BA  83 C6 09			     add si, 9
    615	02BD  80 EB 09			     sub bl, 9
    616
    617	02C0			     not_custom:
    618
    619	02C0  46			     inc si
    620	02C1  FE CB			     dec bl
    621
    622	02C3  32 E4			     xor ah, ah
    623	02C5  8A C3			     mov al, bl
    624
    625	02C7  B2 0A			     mov dl, 10
    626	02C9  F6 F2			     div dl
    627
Turbo Assembler	 Version 4.1	    02/26/23 19:51:07	    Page 12
border2.asm



    628	02CB  8A D4			     mov dl, ah
    629	02CD  8A F0			     mov dh, al
    630
    631	02CF  E8 0063			     call Text
    632
    633	02D2  B8 4C00			     mov ax, 4C00h
    634	02D5  CD 21			     int 21h
    635
    636					     include bordre.asi
1   637				     ;
1   638				     ; args - ah, di, dl, si
1   639				     ; ah - attribute
1   640				     ; di - start
1   641				     ; dl - width
1   642				     ; si - border source
1   643				     ; dh - height
1   644				     ; destroys	- dohuya
1   645				     ;
1   646
1   647	02D7			     Border  proc
1   648	02D7  55			     push bp
1   649
1   650	02D8  E8 0045			     call String
1   651
1   652	02DB  81 C7 00A0		     add di, 80	* 2
1   653
1   654	02DF  32 FF			     xor bh, bh		     ; cringe
1   655	02E1  8A DA			     mov bl, dl
1   656
1   657	02E3  2B FB			     sub di, bx
1   658	02E5  2B FB			     sub di, bx
1   659
1   660	02E7  8B EA			     mov bp, dx
1   661	02E9  81 E5 FF00		     and bp, 0FF00h
1   662	02ED  D1 ED D1 ED D1 ED	D1+	     shr bp, 8
    663	      ED D1 ED D1 ED D1	ED+
    664	      D1 ED
1   665	02FD  83 ED 02			     sub bp, 2
1   666
1   667	0300  E8 001D		     zaloop: call String
1   668
1   669	0303  83 EE 03			     sub si, 3
1   670
1   671	0306  81 C7 00A0		     add di, 80	* 2
1   672
1   673	030A  32 FF			     xor bh, bh		     ; cringe
1   674	030C  8A DA			     mov bl, dl
1   675
1   676	030E  2B FB			     sub di, bx
1   677	0310  2B FB			     sub di, bx
1   678
1   679	0312  4D			     dec bp
1   680
1   681	0313  83 FD 00			     cmp bp, 0
1   682	0316  75 E8			     jne zaloop
1   683
1   684	0318  83 C6 03			     add si, 3
Turbo Assembler	 Version 4.1	    02/26/23 19:51:07	    Page 13
border2.asm



1   685
1   686	031B  E8 0002			     call String
1   687
1   688	031E  5D			     pop bp
1   689	031F  C3			     ret
1   690	0320				     endp
1   691
1   692					     include string.asi
2   693				     ;
2   694				     ; args - ah, di, dl
2   695				     ; ah - attribute
2   696				     ; di - start
2   697				     ; dl - length
2   698				     ; destroys	- si, cx
2   699				     ;
2   700
2   701	0320			     String  proc
2   702
2   703	0320  AC			     lodsb
2   704	0321  AB			     stosw
2   705
2   706	0322  AC			     lodsb
2   707
2   708	0323  8A CA			     mov cl, dl
2   709	0325  80 E9 02			     sub cl, 2
2   710	0328  32 ED			     xor ch, ch
2   711
2   712	032A  26: 89 05		     @@Next: mov es:[di], ax
2   713
2   714	032D  83 C7 02			     add di, 2
2   715
2   716	0330  E2 F8			     loop @@Next
2   717
2   718	0332  AC			     lodsb
2   719	0333  AB			     stosw
2   720
2   721	0334  C3			     ret
2   722	0335				     endp
    723					     include text.asi
1   724	0335			     Text    proc
1   725
1   726	0335  BF 07D0			     mov di, 80	* 25
1   727
1   728	0338  8B C2			     mov ax, dx
1   729	033A  32 E4			     xor ah, ah		      ;	dl в общ
1   730
1   731	033C  80 FE 00			     cmp dh, 0
1   732	033F  75 03			     jne not_smol_txt1		  ; концептуально - сначала	идет    +
    733				     распечатка "больших" строк, а потом маленькой; ну и    +
    734				     здесь	джамп сразу к распечатке маленькой; важно не   +
    735				     проебать dl
1   736
1   737	0341  E9 0179			     jmp smol_txt
1   738
1   739	0344			     not_smol_txt1:
1   740
1   741	0344  83 EF 0A			     sub di, word ptr 10
Turbo Assembler	 Version 4.1	    02/26/23 19:51:07	    Page 14
border2.asm



1   742
1   743	0347  32 E4			     xor ah, ah
1   744	0349  8A C6			     mov al, dh
1   745
1   746	034B  B1 02			     mov cl, 2
1   747	034D  F6 F1			     div cl
1   748
1   749					     REPT 160
1   750
1   751					     sub di, ax
1   752
1   753					     ENDM
2   754
2   755	034F  2B F8			     sub di, ax
2   756
2   757
2   758	0351  2B F8			     sub di, ax
2   759
2   760
2   761	0353  2B F8			     sub di, ax
2   762
2   763
2   764	0355  2B F8			     sub di, ax
2   765
2   766
2   767	0357  2B F8			     sub di, ax
2   768
2   769
2   770	0359  2B F8			     sub di, ax
2   771
2   772
2   773	035B  2B F8			     sub di, ax
2   774
2   775
2   776	035D  2B F8			     sub di, ax
2   777
2   778
2   779	035F  2B F8			     sub di, ax
2   780
2   781
2   782	0361  2B F8			     sub di, ax
2   783
2   784
2   785	0363  2B F8			     sub di, ax
2   786
2   787
2   788	0365  2B F8			     sub di, ax
2   789
2   790
2   791	0367  2B F8			     sub di, ax
2   792
2   793
2   794	0369  2B F8			     sub di, ax
2   795
2   796
2   797	036B  2B F8			     sub di, ax
2   798
Turbo Assembler	 Version 4.1	    02/26/23 19:51:07	    Page 15
border2.asm



2   799
2   800	036D  2B F8			     sub di, ax
2   801
2   802
2   803	036F  2B F8			     sub di, ax
2   804
2   805
2   806	0371  2B F8			     sub di, ax
2   807
2   808
2   809	0373  2B F8			     sub di, ax
2   810
2   811
2   812	0375  2B F8			     sub di, ax
2   813
2   814
2   815	0377  2B F8			     sub di, ax
2   816
2   817
2   818	0379  2B F8			     sub di, ax
2   819
2   820
2   821	037B  2B F8			     sub di, ax
2   822
2   823
2   824	037D  2B F8			     sub di, ax
2   825
2   826
2   827	037F  2B F8			     sub di, ax
2   828
2   829
2   830	0381  2B F8			     sub di, ax
2   831
2   832
2   833	0383  2B F8			     sub di, ax
2   834
2   835
2   836	0385  2B F8			     sub di, ax
2   837
2   838
2   839	0387  2B F8			     sub di, ax
2   840
2   841
2   842	0389  2B F8			     sub di, ax
2   843
2   844
2   845	038B  2B F8			     sub di, ax
2   846
2   847
2   848	038D  2B F8			     sub di, ax
2   849
2   850
2   851	038F  2B F8			     sub di, ax
2   852
2   853
2   854	0391  2B F8			     sub di, ax
2   855
Turbo Assembler	 Version 4.1	    02/26/23 19:51:07	    Page 16
border2.asm



2   856
2   857	0393  2B F8			     sub di, ax
2   858
2   859
2   860	0395  2B F8			     sub di, ax
2   861
2   862
2   863	0397  2B F8			     sub di, ax
2   864
2   865
2   866	0399  2B F8			     sub di, ax
2   867
2   868
2   869	039B  2B F8			     sub di, ax
2   870
2   871
2   872	039D  2B F8			     sub di, ax
2   873
2   874
2   875	039F  2B F8			     sub di, ax
2   876
2   877
2   878	03A1  2B F8			     sub di, ax
2   879
2   880
2   881	03A3  2B F8			     sub di, ax
2   882
2   883
2   884	03A5  2B F8			     sub di, ax
2   885
2   886
2   887	03A7  2B F8			     sub di, ax
2   888
2   889
2   890	03A9  2B F8			     sub di, ax
2   891
2   892
2   893	03AB  2B F8			     sub di, ax
2   894
2   895
2   896	03AD  2B F8			     sub di, ax
2   897
2   898
2   899	03AF  2B F8			     sub di, ax
2   900
2   901
2   902	03B1  2B F8			     sub di, ax
2   903
2   904
2   905	03B3  2B F8			     sub di, ax
2   906
2   907
2   908	03B5  2B F8			     sub di, ax
2   909
2   910
2   911	03B7  2B F8			     sub di, ax
2   912
Turbo Assembler	 Version 4.1	    02/26/23 19:51:07	    Page 17
border2.asm



2   913
2   914	03B9  2B F8			     sub di, ax
2   915
2   916
2   917	03BB  2B F8			     sub di, ax
2   918
2   919
2   920	03BD  2B F8			     sub di, ax
2   921
2   922
2   923	03BF  2B F8			     sub di, ax
2   924
2   925
2   926	03C1  2B F8			     sub di, ax
2   927
2   928
2   929	03C3  2B F8			     sub di, ax
2   930
2   931
2   932	03C5  2B F8			     sub di, ax
2   933
2   934
2   935	03C7  2B F8			     sub di, ax
2   936
2   937
2   938	03C9  2B F8			     sub di, ax
2   939
2   940
2   941	03CB  2B F8			     sub di, ax
2   942
2   943
2   944	03CD  2B F8			     sub di, ax
2   945
2   946
2   947	03CF  2B F8			     sub di, ax
2   948
2   949
2   950	03D1  2B F8			     sub di, ax
2   951
2   952
2   953	03D3  2B F8			     sub di, ax
2   954
2   955
2   956	03D5  2B F8			     sub di, ax
2   957
2   958
2   959	03D7  2B F8			     sub di, ax
2   960
2   961
2   962	03D9  2B F8			     sub di, ax
2   963
2   964
2   965	03DB  2B F8			     sub di, ax
2   966
2   967
2   968	03DD  2B F8			     sub di, ax
2   969
Turbo Assembler	 Version 4.1	    02/26/23 19:51:07	    Page 18
border2.asm



2   970
2   971	03DF  2B F8			     sub di, ax
2   972
2   973
2   974	03E1  2B F8			     sub di, ax
2   975
2   976
2   977	03E3  2B F8			     sub di, ax
2   978
2   979
2   980	03E5  2B F8			     sub di, ax
2   981
2   982
2   983	03E7  2B F8			     sub di, ax
2   984
2   985
2   986	03E9  2B F8			     sub di, ax
2   987
2   988
2   989	03EB  2B F8			     sub di, ax
2   990
2   991
2   992	03ED  2B F8			     sub di, ax
2   993
2   994
2   995	03EF  2B F8			     sub di, ax
2   996
2   997
2   998	03F1  2B F8			     sub di, ax
2   999
2  1000
2  1001	03F3  2B F8			     sub di, ax
2  1002
2  1003
2  1004	03F5  2B F8			     sub di, ax
2  1005
2  1006
2  1007	03F7  2B F8			     sub di, ax
2  1008
2  1009
2  1010	03F9  2B F8			     sub di, ax
2  1011
2  1012
2  1013	03FB  2B F8			     sub di, ax
2  1014
2  1015
2  1016	03FD  2B F8			     sub di, ax
2  1017
2  1018
2  1019	03FF  2B F8			     sub di, ax
2  1020
2  1021
2  1022	0401  2B F8			     sub di, ax
2  1023
2  1024
2  1025	0403  2B F8			     sub di, ax
2  1026
Turbo Assembler	 Version 4.1	    02/26/23 19:51:07	    Page 19
border2.asm



2  1027
2  1028	0405  2B F8			     sub di, ax
2  1029
2  1030
2  1031	0407  2B F8			     sub di, ax
2  1032
2  1033
2  1034	0409  2B F8			     sub di, ax
2  1035
2  1036
2  1037	040B  2B F8			     sub di, ax
2  1038
2  1039
2  1040	040D  2B F8			     sub di, ax
2  1041
2  1042
2  1043	040F  2B F8			     sub di, ax
2  1044
2  1045
2  1046	0411  2B F8			     sub di, ax
2  1047
2  1048
2  1049	0413  2B F8			     sub di, ax
2  1050
2  1051
2  1052	0415  2B F8			     sub di, ax
2  1053
2  1054
2  1055	0417  2B F8			     sub di, ax
2  1056
2  1057
2  1058	0419  2B F8			     sub di, ax
2  1059
2  1060
2  1061	041B  2B F8			     sub di, ax
2  1062
2  1063
2  1064	041D  2B F8			     sub di, ax
2  1065
2  1066
2  1067	041F  2B F8			     sub di, ax
2  1068
2  1069
2  1070	0421  2B F8			     sub di, ax
2  1071
2  1072
2  1073	0423  2B F8			     sub di, ax
2  1074
2  1075
2  1076	0425  2B F8			     sub di, ax
2  1077
2  1078
2  1079	0427  2B F8			     sub di, ax
2  1080
2  1081
2  1082	0429  2B F8			     sub di, ax
2  1083
Turbo Assembler	 Version 4.1	    02/26/23 19:51:07	    Page 20
border2.asm



2  1084
2  1085	042B  2B F8			     sub di, ax
2  1086
2  1087
2  1088	042D  2B F8			     sub di, ax
2  1089
2  1090
2  1091	042F  2B F8			     sub di, ax
2  1092
2  1093
2  1094	0431  2B F8			     sub di, ax
2  1095
2  1096
2  1097	0433  2B F8			     sub di, ax
2  1098
2  1099
2  1100	0435  2B F8			     sub di, ax
2  1101
2  1102
2  1103	0437  2B F8			     sub di, ax
2  1104
2  1105
2  1106	0439  2B F8			     sub di, ax
2  1107
2  1108
2  1109	043B  2B F8			     sub di, ax
2  1110
2  1111
2  1112	043D  2B F8			     sub di, ax
2  1113
2  1114
2  1115	043F  2B F8			     sub di, ax
2  1116
2  1117
2  1118	0441  2B F8			     sub di, ax
2  1119
2  1120
2  1121	0443  2B F8			     sub di, ax
2  1122
2  1123
2  1124	0445  2B F8			     sub di, ax
2  1125
2  1126
2  1127	0447  2B F8			     sub di, ax
2  1128
2  1129
2  1130	0449  2B F8			     sub di, ax
2  1131
2  1132
2  1133	044B  2B F8			     sub di, ax
2  1134
2  1135
2  1136	044D  2B F8			     sub di, ax
2  1137
2  1138
2  1139	044F  2B F8			     sub di, ax
2  1140
Turbo Assembler	 Version 4.1	    02/26/23 19:51:07	    Page 21
border2.asm



2  1141
2  1142	0451  2B F8			     sub di, ax
2  1143
2  1144
2  1145	0453  2B F8			     sub di, ax
2  1146
2  1147
2  1148	0455  2B F8			     sub di, ax
2  1149
2  1150
2  1151	0457  2B F8			     sub di, ax
2  1152
2  1153
2  1154	0459  2B F8			     sub di, ax
2  1155
2  1156
2  1157	045B  2B F8			     sub di, ax
2  1158
2  1159
2  1160	045D  2B F8			     sub di, ax
2  1161
2  1162
2  1163	045F  2B F8			     sub di, ax
2  1164
2  1165
2  1166	0461  2B F8			     sub di, ax
2  1167
2  1168
2  1169	0463  2B F8			     sub di, ax
2  1170
2  1171
2  1172	0465  2B F8			     sub di, ax
2  1173
2  1174
2  1175	0467  2B F8			     sub di, ax
2  1176
2  1177
2  1178	0469  2B F8			     sub di, ax
2  1179
2  1180
2  1181	046B  2B F8			     sub di, ax
2  1182
2  1183
2  1184	046D  2B F8			     sub di, ax
2  1185
2  1186
2  1187	046F  2B F8			     sub di, ax
2  1188
2  1189
2  1190	0471  2B F8			     sub di, ax
2  1191
2  1192
2  1193	0473  2B F8			     sub di, ax
2  1194
2  1195
2  1196	0475  2B F8			     sub di, ax
2  1197
Turbo Assembler	 Version 4.1	    02/26/23 19:51:07	    Page 22
border2.asm



2  1198
2  1199	0477  2B F8			     sub di, ax
2  1200
2  1201
2  1202	0479  2B F8			     sub di, ax
2  1203
2  1204
2  1205	047B  2B F8			     sub di, ax
2  1206
2  1207
2  1208	047D  2B F8			     sub di, ax
2  1209
2  1210
2  1211	047F  2B F8			     sub di, ax
2  1212
2  1213
2  1214	0481  2B F8			     sub di, ax
2  1215
2  1216
2  1217	0483  2B F8			     sub di, ax
2  1218
2  1219
2  1220	0485  2B F8			     sub di, ax
2  1221
2  1222
2  1223	0487  2B F8			     sub di, ax
2  1224
2  1225
2  1226	0489  2B F8			     sub di, ax
2  1227
2  1228
2  1229	048B  2B F8			     sub di, ax
2  1230
2  1231
2  1232	048D  2B F8			     sub di, ax
2  1233
1  1234
1  1235	048F  8A CE			     mov cl, dh
1  1236	0491  32 ED			     xor ch, ch
1  1237
1  1238	0493  46			     inc si
1  1239
1  1240	0494			     @@Next:
1  1241	0494  80 F9 00			     cmp cl, 0
1  1242	0497  75 03			     jne not_smol_txt
1  1243
1  1244	0499  EB 22 90			     jmp smol_txt
1  1245
1  1246	049C			     not_smol_txt:
1  1247
1  1248	049C  B4 1E			     mov ah, 1Eh
1  1249
1  1250					     REPT 10
1  1251
1  1252					     lodsb
1  1253					     stosw
1  1254
Turbo Assembler	 Version 4.1	    02/26/23 19:51:07	    Page 23
border2.asm



1  1255					     ENDM
2  1256
2  1257	049E  AC			     lodsb
2  1258	049F  AB			     stosw
2  1259
2  1260
2  1261	04A0  AC			     lodsb
2  1262	04A1  AB			     stosw
2  1263
2  1264
2  1265	04A2  AC			     lodsb
2  1266	04A3  AB			     stosw
2  1267
2  1268
2  1269	04A4  AC			     lodsb
2  1270	04A5  AB			     stosw
2  1271
2  1272
2  1273	04A6  AC			     lodsb
2  1274	04A7  AB			     stosw
2  1275
2  1276
2  1277	04A8  AC			     lodsb
2  1278	04A9  AB			     stosw
2  1279
2  1280
2  1281	04AA  AC			     lodsb
2  1282	04AB  AB			     stosw
2  1283
2  1284
2  1285	04AC  AC			     lodsb
2  1286	04AD  AB			     stosw
2  1287
2  1288
2  1289	04AE  AC			     lodsb
2  1290	04AF  AB			     stosw
2  1291
2  1292
2  1293	04B0  AC			     lodsb
2  1294	04B1  AB			     stosw
2  1295
1  1296
1  1297	04B2  FE C9			     dec cl
1  1298	04B4  81 C7 008C		     add di, (80 - 10) * 2
1  1299
1  1300	04B8  EB DA			     jmp @@Next
1  1301
1  1302	04BA  83 C7 05			     add di, 5
1  1303
1  1304	04BD			     smol_txt:
1  1305	04BD  8A C2			     mov al, dl
1  1306	04BF  32 E4			     xor ah, ah
1  1307
1  1308	04C1  2B F8			     sub di, ax
1  1309
1  1310	04C3  8B CA			     mov cx, dx
1  1311	04C5  32 ED			     xor ch, ch
Turbo Assembler	 Version 4.1	    02/26/23 19:51:07	    Page 24
border2.asm



1  1312	04C7  49			     dec cx
1  1313
1  1314	04C8  B4 1E			     mov ah, 1Eh
1  1315
1  1316	04CA  83 E7 FE			     and di, 0FFFEh		     ; need even di
1  1317
1  1318	04CD			     @@Next2:
1  1319
1  1320	04CD  AC			     lodsb
1  1321	04CE  AB			     stosw
1  1322
1  1323	04CF  83 F9 00			     cmp cx, 0
1  1324	04D2  74 02			     je	@@ret			     ; cause loop incs cx
1  1325
1  1326	04D4  E2 F7			     loop @@Next2
1  1327
1  1328	04D6  C3		     @@ret:  ret
1  1329	04D7				     endp
   1330
   1331	04D7  ?? ?? ?? ?? ?? ??	??+  cbrd    db	  ?,   ?,   ?,	 ?,   ?,   ?,	?,   ?,	  ?  ; custom border
   1332	      ?? ??
   1333	04E0  40 40 40 40 00 40	40+  brd1    db	40h, 40h, 40h, 40h, 00h, 40h, 40h, 40h,	40h
   1334	      40 40
   1335	04E9  80 80 80 80 00 80	80+  brd2    db	80h, 80h, 80h, 80h, 00h, 80h, 80h, 80h,	80h
   1336	      80 80
   1337	04F2  1E 1E 1E 1E 00 1E	1E+  brd3    db	1Eh, 1Eh, 1Eh, 1Eh, 00h, 1Eh, 1Eh, 1Eh,	1Eh
   1338	      1E 1E
   1339	04FB  40 40 40 40 00 40	40+  brd4    db	40h, 40h, 40h, 40h, 00h, 40h, 40h, 40h,	40h
   1340	      40 40
   1341	0504  40 40 40 40 00 40	40+  brd5    db	40h, 40h, 40h, 40h, 00h, 40h, 40h, 40h,	40h
   1342	      40 40
   1343
   1344				     end     Start
Turbo Assembler	 Version 4.1	    02/26/23 19:51:07	    Page 25
Symbol Table




Symbol Name			  Type	 Value

??DATE				  Text	 "02/26/23"
??FILENAME			  Text	 "border2 "
??TIME				  Text	 "19:51:06"
??VERSION			  Number 040A
@32BIT				  Text	 0
@@NEXT				  Near	 DGROUP:02A3
@@NEXT				  Near	 DGROUP:032A
@@NEXT				  Near	 DGROUP:0494
@@NEXT2				  Near	 DGROUP:04CD
@@RET				  Near	 DGROUP:04D6
@CODE				  Text	 DGROUP
@CODESIZE			  Text	 0
@CPU				  Text	 0101H
@CURSEG				  Text	 _TEXT
@DATA				  Text	 DGROUP
@DATASIZE			  Text	 0
@FILENAME			  Text	 BORDER2
@INTERFACE			  Text	 000H
@MODEL				  Text	 1
@STACK				  Text	 DGROUP
@WORDSIZE			  Text	 2
BORDER				  Near	 DGROUP:02D7
BRD1				  Byte	 DGROUP:04E0
BRD2				  Byte	 DGROUP:04E9
BRD3				  Byte	 DGROUP:04F2
BRD4				  Byte	 DGROUP:04FB
BRD5				  Byte	 DGROUP:0504
CBRD				  Byte	 DGROUP:04D7
CUSTOM				  Near	 DGROUP:02A8
NCBRD				  Near	 DGROUP:0128
NOT_CUSTOM			  Near	 DGROUP:02C0
NOT_SMOL_TXT			  Near	 DGROUP:049C
NOT_SMOL_TXT1			  Near	 DGROUP:0344
SMOL_TXT			  Near	 DGROUP:04BD
START				  Near	 DGROUP:0100
STRING				  Near	 DGROUP:0320
TEXT				  Near	 DGROUP:0335
ZALOOP				  Near	 DGROUP:0300

Groups & Segments		  Bit Size Align  Combine Class

DGROUP				  Group
  _DATA				  16  0000 Word	  Public  DATA
  _TEXT				  16  050D Word	  Public  CODE
